(lp0
(S'cppflags'
p1
ccopy_reg
_reconstructor
p2
(cino.utils
SpaceList
p3
c__builtin__
list
p4
(lp5
S'-mmcu=atmega328p'
p6
aS'-DF_CPU=16000000L'
p7
aS'-DARDUINO=105'
p8
aS'-I/usr/share/arduino/hardware/arduino/cores/arduino'
p9
aS'-ffunction-sections'
p10
aS'-fdata-sections'
p11
aS'-g'
p12
aS'-Os'
p13
aS'-w'
p14
aS'-I/usr/share/arduino/hardware/arduino/variants/standard'
p15
aS'-Ilib/robotarm'
p16
aS'-Ilib/robotarm/Servo'
p17
aS'-Ilib/robotarm/VarSpeedServo'
p18
aS'-Ilib/VarSpeedServo'
p19
aS'-Ilib/Servo'
p20
aS'-I/usr/share/arduino/hardware/arduino/cores/arduino'
p21
aS'-I/usr/share/arduino/hardware/arduino/cores/arduino/avr-libc'
p22
atp23
Rp24
tp25
a(S'cxx'
p26
S'/usr/share/arduino/hardware/tools/avr/bin/avr-g++'
p27
tp28
a(S'build_dir'
p29
S'.build/uno'
p30
tp31
a(S'avrdude'
p32
S'/usr/share/arduino/hardware/tools/avrdude'
p33
tp34
a(S'ar'
p35
S'/usr/share/arduino/hardware/tools/avr/bin/avr-ar'
p36
tp37
a(S'names'
p38
(dp39
S'cpp'
p40
S'%s.cpp'
p41
sS'obj'
p42
S'%s.o'
p43
sS'deps'
p44
S'%s.d'
p45
sS'lib'
p46
S'lib%s.a'
p47
stp48
a(S'ldflags'
p49
g2
(g3
g4
(lp50
g6
aS'-Wl,-Os'
p51
aS'-Wl,--gc-sections'
p52
atp53
Rp54
tp55
a(S'arduino_lib_version'
p56
g2
(cino.environment
Version
p57
c__builtin__
tuple
p58
(I1
I0
I5
tp59
tp60
Rp61
tp62
a(S'objcopy'
p63
S'/usr/share/arduino/hardware/tools/avr/bin/avr-objcopy'
p64
tp65
a(S'board_models'
p66
cino.environment
BoardModels
p67
((lp68
(lp69
S'uno'
p70
a(dp71
S'bootloader'
p72
(dp73
S'extended_fuses'
p74
S'0x05'
p75
sS'high_fuses'
p76
S'0xde'
p77
sS'low_fuses'
p78
S'0xff'
p79
sS'lock_bits'
p80
S'0x0F'
p81
sS'file'
p82
S'optiboot_atmega328.hex'
p83
sS'path'
p84
S'optiboot'
p85
sS'unlock_bits'
p86
S'0x3F'
p87
ssS'build'
p88
(dp89
S'core'
p90
S'arduino'
p91
sS'mcu'
p92
S'atmega328p'
p93
sS'f_cpu'
p94
S'16000000L'
p95
sS'variant'
p96
S'standard'
p97
ssS'name'
p98
S'Arduino Uno'
p99
sS'upload'
p100
(dp101
S'speed'
p102
S'115200'
p103
sS'maximum_size'
p104
S'32256'
p105
sS'protocol'
p106
S'arduino'
p107
ssaa(lp108
S'atmega328'
p109
a(dp110
S'bootloader'
p111
(dp112
S'extended_fuses'
p113
S'0x05'
p114
sS'high_fuses'
p115
S'0xDA'
p116
sS'low_fuses'
p117
S'0xFF'
p118
sS'lock_bits'
p119
S'0x0F'
p120
sS'file'
p121
S'ATmegaBOOT_168_atmega328.hex'
p122
sS'path'
p123
S'atmega'
p124
sS'unlock_bits'
p125
S'0x3F'
p126
ssS'build'
p127
(dp128
S'core'
p129
S'arduino'
p130
sS'mcu'
p131
S'atmega328p'
p132
sS'f_cpu'
p133
S'16000000L'
p134
sS'variant'
p135
S'standard'
p136
ssS'name'
p137
S'Arduino Duemilanove w/ ATmega328'
p138
sS'upload'
p139
(dp140
S'speed'
p141
S'57600'
p142
sS'maximum_size'
p143
S'30720'
p144
sS'protocol'
p145
S'arduino'
p146
ssaa(lp147
S'diecimila'
p148
a(dp149
S'bootloader'
p150
(dp151
S'extended_fuses'
p152
S'0x00'
p153
sS'high_fuses'
p154
S'0xdd'
p155
sS'low_fuses'
p156
S'0xff'
p157
sS'lock_bits'
p158
S'0x0F'
p159
sS'file'
p160
S'ATmegaBOOT_168_diecimila.hex'
p161
sS'path'
p162
S'atmega'
p163
sS'unlock_bits'
p164
S'0x3F'
p165
ssS'build'
p166
(dp167
S'core'
p168
S'arduino'
p169
sS'mcu'
p170
S'atmega168'
p171
sS'f_cpu'
p172
S'16000000L'
p173
sS'variant'
p174
S'standard'
p175
ssS'name'
p176
S'Arduino Diecimila or Duemilanove w/ ATmega168'
p177
sS'upload'
p178
(dp179
S'speed'
p180
S'19200'
p181
sS'maximum_size'
p182
S'14336'
p183
sS'protocol'
p184
S'arduino'
p185
ssaa(lp186
S'nano328'
p187
a(dp188
S'bootloader'
p189
(dp190
S'extended_fuses'
p191
S'0x05'
p192
sS'high_fuses'
p193
S'0xDA'
p194
sS'low_fuses'
p195
S'0xFF'
p196
sS'lock_bits'
p197
S'0x0F'
p198
sS'file'
p199
S'ATmegaBOOT_168_atmega328.hex'
p200
sS'path'
p201
S'atmega'
p202
sS'unlock_bits'
p203
S'0x3F'
p204
ssS'build'
p205
(dp206
S'core'
p207
S'arduino'
p208
sS'mcu'
p209
S'atmega328p'
p210
sS'f_cpu'
p211
S'16000000L'
p212
sS'variant'
p213
S'eightanaloginputs'
p214
ssS'name'
p215
S'Arduino Nano w/ ATmega328'
p216
sS'upload'
p217
(dp218
S'speed'
p219
S'57600'
p220
sS'maximum_size'
p221
S'30720'
p222
sS'protocol'
p223
S'arduino'
p224
ssaa(lp225
S'nano'
p226
a(dp227
S'bootloader'
p228
(dp229
S'extended_fuses'
p230
S'0x00'
p231
sS'high_fuses'
p232
S'0xdd'
p233
sS'low_fuses'
p234
S'0xff'
p235
sS'lock_bits'
p236
S'0x0F'
p237
sS'file'
p238
S'ATmegaBOOT_168_diecimila.hex'
p239
sS'path'
p240
S'atmega'
p241
sS'unlock_bits'
p242
S'0x3F'
p243
ssS'build'
p244
(dp245
S'core'
p246
S'arduino'
p247
sS'mcu'
p248
S'atmega168'
p249
sS'f_cpu'
p250
S'16000000L'
p251
sS'variant'
p252
S'eightanaloginputs'
p253
ssS'name'
p254
S'Arduino Nano w/ ATmega168'
p255
sS'upload'
p256
(dp257
S'speed'
p258
S'19200'
p259
sS'maximum_size'
p260
S'14336'
p261
sS'protocol'
p262
S'arduino'
p263
ssaa(lp264
S'mega2560'
p265
a(dp266
S'bootloader'
p267
(dp268
S'extended_fuses'
p269
S'0xFD'
p270
sS'high_fuses'
p271
S'0xD8'
p272
sS'low_fuses'
p273
S'0xFF'
p274
sS'lock_bits'
p275
S'0x0F'
p276
sS'file'
p277
S'stk500boot_v2_mega2560.hex'
p278
sS'path'
p279
S'stk500v2'
p280
sS'unlock_bits'
p281
S'0x3F'
p282
ssS'build'
p283
(dp284
S'core'
p285
S'arduino'
p286
sS'mcu'
p287
S'atmega2560'
p288
sS'f_cpu'
p289
S'16000000L'
p290
sS'variant'
p291
S'mega'
p292
ssS'name'
p293
S'Arduino Mega 2560 or Mega ADK'
p294
sS'upload'
p295
(dp296
S'speed'
p297
S'115200'
p298
sS'maximum_size'
p299
S'258048'
p300
sS'protocol'
p301
S'wiring'
p302
ssaa(lp303
S'mega'
p304
a(dp305
S'bootloader'
p306
(dp307
S'extended_fuses'
p308
S'0xF5'
p309
sS'high_fuses'
p310
S'0xDA'
p311
sS'low_fuses'
p312
S'0xFF'
p313
sS'lock_bits'
p314
S'0x0F'
p315
sS'file'
p316
S'ATmegaBOOT_168_atmega1280.hex'
p317
sS'path'
p318
S'atmega'
p319
sS'unlock_bits'
p320
S'0x3F'
p321
ssS'build'
p322
(dp323
S'core'
p324
S'arduino'
p325
sS'mcu'
p326
S'atmega1280'
p327
sS'f_cpu'
p328
S'16000000L'
p329
sS'variant'
p330
S'mega'
p331
ssS'name'
p332
S'Arduino Mega (ATmega1280)'
p333
sS'upload'
p334
(dp335
S'speed'
p336
S'57600'
p337
sS'maximum_size'
p338
S'126976'
p339
sS'protocol'
p340
S'arduino'
p341
ssaa(lp342
S'leonardo'
p343
a(dp344
S'bootloader'
p345
(dp346
S'extended_fuses'
p347
S'0xcb'
p348
sS'high_fuses'
p349
S'0xd8'
p350
sS'low_fuses'
p351
S'0xff'
p352
sS'lock_bits'
p353
S'0x2F'
p354
sS'file'
p355
S'Caterina-Leonardo.hex'
p356
sS'path'
p357
S'caterina'
p358
sS'unlock_bits'
p359
S'0x3F'
p360
ssS'build'
p361
(dp362
S'core'
p363
S'arduino'
p364
sS'f_cpu'
p365
S'16000000L'
p366
sS'vid'
p367
S'0x2341'
p368
sS'pid'
p369
S'0x8036'
p370
sS'variant'
p371
S'leonardo'
p372
sS'mcu'
p373
S'atmega32u4'
p374
ssS'name'
p375
S'Arduino Leonardo'
p376
sS'upload'
p377
(dp378
S'speed'
p379
S'57600'
p380
sS'maximum_size'
p381
S'28672'
p382
sS'protocol'
p383
S'avr109'
p384
sS'disable_flushing'
p385
S'true'
p386
ssaa(lp387
S'esplora'
p388
a(dp389
S'bootloader'
p390
(dp391
S'extended_fuses'
p392
S'0xcb'
p393
sS'high_fuses'
p394
S'0xd8'
p395
sS'low_fuses'
p396
S'0xff'
p397
sS'lock_bits'
p398
S'0x2F'
p399
sS'file'
p400
S'Caterina-Esplora.hex'
p401
sS'path'
p402
S'caterina'
p403
sS'unlock_bits'
p404
S'0x3F'
p405
ssS'build'
p406
(dp407
S'core'
p408
S'arduino'
p409
sS'f_cpu'
p410
S'16000000L'
p411
sS'vid'
p412
S'0x2341'
p413
sS'pid'
p414
S'0x803C'
p415
sS'variant'
p416
S'leonardo'
p417
sS'mcu'
p418
S'atmega32u4'
p419
ssS'name'
p420
S'Arduino Esplora'
p421
sS'upload'
p422
(dp423
S'speed'
p424
S'57600'
p425
sS'maximum_size'
p426
S'28672'
p427
sS'protocol'
p428
S'avr109'
p429
sS'disable_flushing'
p430
S'true'
p431
ssaa(lp432
S'micro'
p433
a(dp434
S'bootloader'
p435
(dp436
S'extended_fuses'
p437
S'0xcb'
p438
sS'high_fuses'
p439
S'0xd8'
p440
sS'low_fuses'
p441
S'0xff'
p442
sS'lock_bits'
p443
S'0x2F'
p444
sS'file'
p445
S'Caterina-Micro.hex'
p446
sS'path'
p447
S'caterina'
p448
sS'unlock_bits'
p449
S'0x3F'
p450
ssS'build'
p451
(dp452
S'core'
p453
S'arduino'
p454
sS'f_cpu'
p455
S'16000000L'
p456
sS'vid'
p457
S'0x2341'
p458
sS'pid'
p459
S'0x8037'
p460
sS'variant'
p461
S'micro'
p462
sS'mcu'
p463
S'atmega32u4'
p464
ssS'name'
p465
S'Arduino Micro'
p466
sS'upload'
p467
(dp468
S'speed'
p469
S'57600'
p470
sS'maximum_size'
p471
S'28672'
p472
sS'protocol'
p473
S'avr109'
p474
sS'disable_flushing'
p475
S'true'
p476
ssaa(lp477
S'mini328'
p478
a(dp479
S'bootloader'
p480
(dp481
S'extended_fuses'
p482
S'0x05'
p483
sS'high_fuses'
p484
S'0xd8'
p485
sS'low_fuses'
p486
S'0xff'
p487
sS'lock_bits'
p488
S'0x0F'
p489
sS'file'
p490
S'optiboot_atmega328-Mini.hex'
p491
sS'path'
p492
S'optiboot'
p493
sS'unlock_bits'
p494
S'0x3F'
p495
ssS'build'
p496
(dp497
S'core'
p498
S'arduino'
p499
sS'mcu'
p500
S'atmega328p'
p501
sS'f_cpu'
p502
S'16000000L'
p503
sS'variant'
p504
S'eightanaloginputs'
p505
ssS'name'
p506
S'Arduino Mini w/ ATmega328'
p507
sS'upload'
p508
(dp509
S'speed'
p510
S'115200'
p511
sS'maximum_size'
p512
S'28672'
p513
sS'protocol'
p514
S'arduino'
p515
ssaa(lp516
S'mini'
p517
a(dp518
S'bootloader'
p519
(dp520
S'extended_fuses'
p521
S'0x00'
p522
sS'high_fuses'
p523
S'0xdd'
p524
sS'low_fuses'
p525
S'0xff'
p526
sS'lock_bits'
p527
S'0x0F'
p528
sS'file'
p529
S'ATmegaBOOT_168_ng.hex'
p530
sS'path'
p531
S'atmega'
p532
sS'unlock_bits'
p533
S'0x3F'
p534
ssS'build'
p535
(dp536
S'core'
p537
S'arduino'
p538
sS'mcu'
p539
S'atmega168'
p540
sS'f_cpu'
p541
S'16000000L'
p542
sS'variant'
p543
S'eightanaloginputs'
p544
ssS'name'
p545
S'Arduino Mini w/ ATmega168'
p546
sS'upload'
p547
(dp548
S'speed'
p549
S'19200'
p550
sS'maximum_size'
p551
S'14336'
p552
sS'protocol'
p553
S'arduino'
p554
ssaa(lp555
S'ethernet'
p556
a(dp557
S'bootloader'
p558
(dp559
S'extended_fuses'
p560
S'0x05'
p561
sS'high_fuses'
p562
S'0xde'
p563
sS'low_fuses'
p564
S'0xff'
p565
sS'lock_bits'
p566
S'0x0F'
p567
sS'file'
p568
S'optiboot_atmega328.hex'
p569
sS'path'
p570
S'optiboot'
p571
sS'unlock_bits'
p572
S'0x3F'
p573
ssS'build'
p574
(dp575
S'f_cpu'
p576
S'16000000L'
p577
sS'mcu'
p578
S'atmega328p'
p579
sS'variant'
p580
S'standard'
p581
sS'core'
p582
S'arduino'
p583
ssS'name'
p584
S'Arduino Ethernet'
p585
sS'upload'
p586
(dp587
S'speed'
p588
S'115200'
p589
sS'maximum_size'
p590
S'32256'
p591
sS'protocol'
p592
S'arduino'
p593
ssaa(lp594
S'fio'
p595
a(dp596
S'bootloader'
p597
(dp598
S'extended_fuses'
p599
S'0x05'
p600
sS'high_fuses'
p601
S'0xDA'
p602
sS'low_fuses'
p603
S'0xFF'
p604
sS'lock_bits'
p605
S'0x0F'
p606
sS'file'
p607
S'ATmegaBOOT_168_atmega328_pro_8MHz.hex'
p608
sS'path'
p609
S'arduino:atmega'
p610
sS'unlock_bits'
p611
S'0x3F'
p612
ssS'build'
p613
(dp614
S'core'
p615
S'arduino'
p616
sS'mcu'
p617
S'atmega328p'
p618
sS'f_cpu'
p619
S'8000000L'
p620
sS'variant'
p621
S'eightanaloginputs'
p622
ssS'name'
p623
S'Arduino Fio'
p624
sS'upload'
p625
(dp626
S'speed'
p627
S'57600'
p628
sS'maximum_size'
p629
S'30720'
p630
sS'protocol'
p631
S'arduino'
p632
ssaa(lp633
S'bt328'
p634
a(dp635
S'bootloader'
p636
(dp637
S'extended_fuses'
p638
S'0x05'
p639
sS'high_fuses'
p640
S'0xd8'
p641
sS'low_fuses'
p642
S'0xff'
p643
sS'lock_bits'
p644
S'0x0F'
p645
sS'file'
p646
S'ATmegaBOOT_168_atmega328_bt.hex'
p647
sS'path'
p648
S'bt'
p649
sS'unlock_bits'
p650
S'0x3F'
p651
ssS'build'
p652
(dp653
S'core'
p654
S'arduino'
p655
sS'mcu'
p656
S'atmega328p'
p657
sS'f_cpu'
p658
S'16000000L'
p659
sS'variant'
p660
S'eightanaloginputs'
p661
ssS'name'
p662
S'Arduino BT w/ ATmega328'
p663
sS'upload'
p664
(dp665
S'speed'
p666
S'19200'
p667
sS'maximum_size'
p668
S'28672'
p669
sS'protocol'
p670
S'arduino'
p671
sS'disable_flushing'
p672
S'true'
p673
ssaa(lp674
S'bt'
p675
a(dp676
S'bootloader'
p677
(dp678
S'extended_fuses'
p679
S'0x00'
p680
sS'high_fuses'
p681
S'0xdd'
p682
sS'low_fuses'
p683
S'0xff'
p684
sS'lock_bits'
p685
S'0x0F'
p686
sS'file'
p687
S'ATmegaBOOT_168.hex'
p688
sS'path'
p689
S'bt'
p690
sS'unlock_bits'
p691
S'0x3F'
p692
ssS'build'
p693
(dp694
S'core'
p695
S'arduino'
p696
sS'mcu'
p697
S'atmega168'
p698
sS'f_cpu'
p699
S'16000000L'
p700
sS'variant'
p701
S'eightanaloginputs'
p702
ssS'name'
p703
S'Arduino BT w/ ATmega168'
p704
sS'upload'
p705
(dp706
S'speed'
p707
S'19200'
p708
sS'maximum_size'
p709
S'14336'
p710
sS'protocol'
p711
S'arduino'
p712
sS'disable_flushing'
p713
S'true'
p714
ssaa(lp715
S'LilyPadUSB'
p716
a(dp717
S'bootloader'
p718
(dp719
S'extended_fuses'
p720
S'0xce'
p721
sS'high_fuses'
p722
S'0xd8'
p723
sS'low_fuses'
p724
S'0xff'
p725
sS'lock_bits'
p726
S'0x2F'
p727
sS'file'
p728
S'Caterina-LilyPadUSB.hex'
p729
sS'path'
p730
S'caterina-LilyPadUSB'
p731
sS'unlock_bits'
p732
S'0x3F'
p733
ssS'build'
p734
(dp735
S'core'
p736
S'arduino'
p737
sS'f_cpu'
p738
S'8000000L'
p739
sS'vid'
p740
S'0x1B4F'
p741
sS'pid'
p742
S'0x9208'
p743
sS'variant'
p744
S'leonardo'
p745
sS'mcu'
p746
S'atmega32u4'
p747
ssS'name'
p748
S'LilyPad Arduino USB'
p749
sS'upload'
p750
(dp751
S'speed'
p752
S'57600'
p753
sS'maximum_size'
p754
S'28672'
p755
sS'protocol'
p756
S'avr109'
p757
sS'disable_flushing'
p758
S'true'
p759
ssaa(lp760
S'lilypad328'
p761
a(dp762
S'bootloader'
p763
(dp764
S'extended_fuses'
p765
S'0x05'
p766
sS'high_fuses'
p767
S'0xDA'
p768
sS'low_fuses'
p769
S'0xFF'
p770
sS'lock_bits'
p771
S'0x0F'
p772
sS'file'
p773
S'ATmegaBOOT_168_atmega328_pro_8MHz.hex'
p774
sS'path'
p775
S'atmega'
p776
sS'unlock_bits'
p777
S'0x3F'
p778
ssS'build'
p779
(dp780
S'core'
p781
S'arduino'
p782
sS'mcu'
p783
S'atmega328p'
p784
sS'f_cpu'
p785
S'8000000L'
p786
sS'variant'
p787
S'standard'
p788
ssS'name'
p789
S'LilyPad Arduino w/ ATmega328'
p790
sS'upload'
p791
(dp792
S'speed'
p793
S'57600'
p794
sS'maximum_size'
p795
S'30720'
p796
sS'protocol'
p797
S'arduino'
p798
ssaa(lp799
S'lilypad'
p800
a(dp801
S'bootloader'
p802
(dp803
S'extended_fuses'
p804
S'0x00'
p805
sS'high_fuses'
p806
S'0xdd'
p807
sS'low_fuses'
p808
S'0xe2'
p809
sS'lock_bits'
p810
S'0x0F'
p811
sS'file'
p812
S'LilyPadBOOT_168.hex'
p813
sS'path'
p814
S'lilypad'
p815
sS'unlock_bits'
p816
S'0x3F'
p817
ssS'build'
p818
(dp819
S'core'
p820
S'arduino'
p821
sS'mcu'
p822
S'atmega168'
p823
sS'f_cpu'
p824
S'8000000L'
p825
sS'variant'
p826
S'standard'
p827
ssS'name'
p828
S'LilyPad Arduino w/ ATmega168'
p829
sS'upload'
p830
(dp831
S'speed'
p832
S'19200'
p833
sS'maximum_size'
p834
S'14336'
p835
sS'protocol'
p836
S'arduino'
p837
ssaa(lp838
S'pro5v328'
p839
a(dp840
S'bootloader'
p841
(dp842
S'extended_fuses'
p843
S'0x05'
p844
sS'high_fuses'
p845
S'0xDA'
p846
sS'low_fuses'
p847
S'0xFF'
p848
sS'lock_bits'
p849
S'0x0F'
p850
sS'file'
p851
S'ATmegaBOOT_168_atmega328.hex'
p852
sS'path'
p853
S'atmega'
p854
sS'unlock_bits'
p855
S'0x3F'
p856
ssS'build'
p857
(dp858
S'core'
p859
S'arduino'
p860
sS'mcu'
p861
S'atmega328p'
p862
sS'f_cpu'
p863
S'16000000L'
p864
sS'variant'
p865
S'standard'
p866
ssS'name'
p867
S'Arduino Pro or Pro Mini (5V, 16 MHz) w/ ATmega328'
p868
sS'upload'
p869
(dp870
S'speed'
p871
S'57600'
p872
sS'maximum_size'
p873
S'30720'
p874
sS'protocol'
p875
S'arduino'
p876
ssaa(lp877
S'pro5v'
p878
a(dp879
S'bootloader'
p880
(dp881
S'extended_fuses'
p882
S'0x00'
p883
sS'high_fuses'
p884
S'0xdd'
p885
sS'low_fuses'
p886
S'0xff'
p887
sS'lock_bits'
p888
S'0x0F'
p889
sS'file'
p890
S'ATmegaBOOT_168_diecimila.hex'
p891
sS'path'
p892
S'atmega'
p893
sS'unlock_bits'
p894
S'0x3F'
p895
ssS'build'
p896
(dp897
S'core'
p898
S'arduino'
p899
sS'mcu'
p900
S'atmega168'
p901
sS'f_cpu'
p902
S'16000000L'
p903
sS'variant'
p904
S'standard'
p905
ssS'name'
p906
S'Arduino Pro or Pro Mini (5V, 16 MHz) w/ ATmega168'
p907
sS'upload'
p908
(dp909
S'speed'
p910
S'19200'
p911
sS'maximum_size'
p912
S'14336'
p913
sS'protocol'
p914
S'arduino'
p915
ssaa(lp916
S'pro328'
p917
a(dp918
S'bootloader'
p919
(dp920
S'extended_fuses'
p921
S'0x05'
p922
sS'high_fuses'
p923
S'0xDA'
p924
sS'low_fuses'
p925
S'0xFF'
p926
sS'lock_bits'
p927
S'0x0F'
p928
sS'file'
p929
S'ATmegaBOOT_168_atmega328_pro_8MHz.hex'
p930
sS'path'
p931
S'atmega'
p932
sS'unlock_bits'
p933
S'0x3F'
p934
ssS'build'
p935
(dp936
S'core'
p937
S'arduino'
p938
sS'mcu'
p939
S'atmega328p'
p940
sS'f_cpu'
p941
S'8000000L'
p942
sS'variant'
p943
S'standard'
p944
ssS'name'
p945
S'Arduino Pro or Pro Mini (3.3V, 8 MHz) w/ ATmega328'
p946
sS'upload'
p947
(dp948
S'speed'
p949
S'57600'
p950
sS'maximum_size'
p951
S'30720'
p952
sS'protocol'
p953
S'arduino'
p954
ssaa(lp955
S'pro'
p956
a(dp957
S'bootloader'
p958
(dp959
S'extended_fuses'
p960
S'0x00'
p961
sS'high_fuses'
p962
S'0xdd'
p963
sS'low_fuses'
p964
S'0xc6'
p965
sS'lock_bits'
p966
S'0x0F'
p967
sS'file'
p968
S'ATmegaBOOT_168_pro_8MHz.hex'
p969
sS'path'
p970
S'atmega'
p971
sS'unlock_bits'
p972
S'0x3F'
p973
ssS'build'
p974
(dp975
S'core'
p976
S'arduino'
p977
sS'mcu'
p978
S'atmega168'
p979
sS'f_cpu'
p980
S'8000000L'
p981
sS'variant'
p982
S'standard'
p983
ssS'name'
p984
S'Arduino Pro or Pro Mini (3.3V, 8 MHz) w/ ATmega168'
p985
sS'upload'
p986
(dp987
S'speed'
p988
S'19200'
p989
sS'maximum_size'
p990
S'14336'
p991
sS'protocol'
p992
S'arduino'
p993
ssaa(lp994
S'atmega168'
p995
a(dp996
S'bootloader'
p997
(dp998
S'extended_fuses'
p999
S'0x00'
p1000
sS'high_fuses'
p1001
S'0xdd'
p1002
sS'low_fuses'
p1003
S'0xff'
p1004
sS'lock_bits'
p1005
S'0x0F'
p1006
sS'file'
p1007
S'ATmegaBOOT_168_ng.hex'
p1008
sS'path'
p1009
S'atmega'
p1010
sS'unlock_bits'
p1011
S'0x3F'
p1012
ssS'build'
p1013
(dp1014
S'core'
p1015
S'arduino'
p1016
sS'mcu'
p1017
S'atmega168'
p1018
sS'f_cpu'
p1019
S'16000000L'
p1020
sS'variant'
p1021
S'standard'
p1022
ssS'name'
p1023
S'Arduino NG or older w/ ATmega168'
p1024
sS'upload'
p1025
(dp1026
S'speed'
p1027
S'19200'
p1028
sS'maximum_size'
p1029
S'14336'
p1030
sS'protocol'
p1031
S'arduino'
p1032
ssaa(lp1033
S'atmega8'
p1034
a(dp1035
S'bootloader'
p1036
(dp1037
S'high_fuses'
p1038
S'0xca'
p1039
sS'low_fuses'
p1040
S'0xdf'
p1041
sS'lock_bits'
p1042
S'0x0F'
p1043
sS'file'
p1044
S'ATmegaBOOT-prod-firmware-2009-11-07.hex'
p1045
sS'path'
p1046
S'atmega8'
p1047
sS'unlock_bits'
p1048
S'0x3F'
p1049
ssS'build'
p1050
(dp1051
S'core'
p1052
S'arduino'
p1053
sS'mcu'
p1054
S'atmega8'
p1055
sS'f_cpu'
p1056
S'16000000L'
p1057
sS'variant'
p1058
S'standard'
p1059
ssS'name'
p1060
S'Arduino NG or older w/ ATmega8'
p1061
sS'upload'
p1062
(dp1063
S'speed'
p1064
S'19200'
p1065
sS'maximum_size'
p1066
S'7168'
p1067
sS'protocol'
p1068
S'arduino'
p1069
ssaa(lp1070
S'robotControl'
p1071
a(dp1072
S'bootloader'
p1073
(dp1074
S'extended_fuses'
p1075
S'0xcb'
p1076
sS'high_fuses'
p1077
S'0xd8'
p1078
sS'low_fuses'
p1079
S'0xff'
p1080
sS'lock_bits'
p1081
S'0x2F'
p1082
sS'file'
p1083
S'Caterina-Robot-Control.hex'
p1084
sS'path'
p1085
S'caterina-Arduino_Robot'
p1086
sS'unlock_bits'
p1087
S'0x3F'
p1088
ssS'build'
p1089
(dp1090
S'core'
p1091
S'robot'
p1092
sS'f_cpu'
p1093
S'16000000L'
p1094
sS'vid'
p1095
S'0x2341'
p1096
sS'pid'
p1097
S'0x8038'
p1098
sS'variant'
p1099
S'robot_control'
p1100
sS'mcu'
p1101
S'atmega32u4'
p1102
ssS'name'
p1103
S'Arduino Robot Control'
p1104
sS'upload'
p1105
(dp1106
S'speed'
p1107
S'57600'
p1108
sS'maximum_size'
p1109
S'28672'
p1110
sS'protocol'
p1111
S'avr109'
p1112
sS'disable_flushing'
p1113
S'true'
p1114
ssaa(lp1115
S'robotMotor'
p1116
a(dp1117
S'bootloader'
p1118
(dp1119
S'extended_fuses'
p1120
S'0xcb'
p1121
sS'high_fuses'
p1122
S'0xd8'
p1123
sS'low_fuses'
p1124
S'0xff'
p1125
sS'lock_bits'
p1126
S'0x2F'
p1127
sS'file'
p1128
S'Caterina-Robot-Motor.hex'
p1129
sS'path'
p1130
S'caterina-Arduino_Robot'
p1131
sS'unlock_bits'
p1132
S'0x3F'
p1133
ssS'build'
p1134
(dp1135
S'core'
p1136
S'robot'
p1137
sS'f_cpu'
p1138
S'16000000L'
p1139
sS'vid'
p1140
S'0x2341'
p1141
sS'pid'
p1142
S'0x8039'
p1143
sS'variant'
p1144
S'robot_motor'
p1145
sS'mcu'
p1146
S'atmega32u4'
p1147
ssS'name'
p1148
S'Arduino Robot Motor'
p1149
sS'upload'
p1150
(dp1151
S'speed'
p1152
S'57600'
p1153
sS'maximum_size'
p1154
S'28672'
p1155
sS'protocol'
p1156
S'avr109'
p1157
sS'disable_flushing'
p1158
S'true'
p1159
ssaatp1160
Rp1161
(dp1162
S'default'
p1163
S'uno'
p1164
sbtp1165
a(S'used_libs'
p1166
(lp1167
S'lib/robotarm'
p1168
aS'lib/VarSpeedServo'
p1169
aS'lib/Servo'
p1170
aS'/usr/share/arduino/hardware/arduino/cores/arduino'
p1171
atp1172
a(S'make'
p1173
S'/usr/share/arduino/hardware/tools/avr/bin/make'
p1174
tp1175
a(S'arduino_libraries_dir'
p1176
S'/usr/share/arduino/libraries'
p1177
tp1178
a(S'cc'
p1179
S'/usr/share/arduino/hardware/tools/avr/bin/avr-gcc'
p1180
tp1181
a(S'cflags'
p1182
g2
(g3
g4
(lp1183
tp1184
Rp1185
tp1186
a(S'cxxflags'
p1187
g2
(g3
g4
(lp1188
S'-fno-exceptions'
p1189
atp1190
Rp1191
tp1192
a(S'arduino_variants_dir'
p1193
S'/usr/share/arduino/hardware/arduino/variants'
p1194
tp1195
a(S'serial'
p1196
S'/usr/bin/picocom'
p1197
tp1198
a(S'stty'
p1199
S'/bin/stty'
p1200
tp1201
a(S'version.txt'
p1202
S'/usr/share/arduino/lib/version.txt'
p1203
tp1204
a(S'arduino_core_dir'
p1205
g1171
tp1206
a(S'boards.txt'
p1207
S'/usr/share/arduino/hardware/arduino/boards.txt'
p1208
tp1209
a(S'avrdude.conf'
p1210
S'/usr/share/arduino/hardware/tools/avrdude.conf'
p1211
tp1212
a(S'deps'
p1213
g2
(g3
g4
(lp1214
S'.build/uno/src/dependencies.d'
p1215
aS'.build/uno/arduino/dependencies.d'
p1216
aS'.build/uno/robotarm/dependencies.d'
p1217
aS'.build/uno/VarSpeedServo/dependencies.d'
p1218
aS'.build/uno/Servo/dependencies.d'
p1219
atp1220
Rp1221
tp1222
a.